; Function Attrs: mustprogress nounwind uwtable
define internal fastcc void @_ZN12_GLOBAL__N_117DXILOperationDescC2EOS0_(ptr noundef nonnull align 8 dereferenceable(512) %0, ptr noundef nonnull align 8 dereferenceable(512) %1) unnamed_addr #0 align 2 {
  tail call void @_ZNSt7__cxx1112basic_stringIcSt11char_traitsIcESaIcEEC1EOS4_(ptr noundef nonnull align 8 dereferenceable(32) %0, ptr noundef nonnull align 8 dereferenceable(32) %1) #20
  %3 = getelementptr inbounds nuw i8, ptr %0, i64 32
  %4 = getelementptr inbounds nuw i8, ptr %1, i64 32
  tail call void @llvm.memcpy.p0.p0.i64(ptr noundef nonnull align 8 dereferenceable(40) %3, ptr noundef nonnull align 8 dereferenceable(40) %4, i64 40, i1 false)
  %5 = getelementptr inbounds nuw i8, ptr %0, i64 72
  %6 = getelementptr inbounds nuw i8, ptr %1, i64 72
  %7 = getelementptr inbounds nuw i8, ptr %0, i64 88
  tail call void @_ZN4llvm15SmallVectorBaseIjEC2EPvm(ptr noundef nonnull align 8 dereferenceable(64) %5, ptr noundef nonnull %7, i64 noundef 6) #20
  %8 = tail call noundef zeroext i1 @_ZNK4llvm15SmallVectorBaseIjE5emptyEv(ptr noundef nonnull align 8 dereferenceable(64) %6) #20
  br i1 %8, label %_ZN4llvm11SmallVectorIPNS_6RecordELj6EEC2EOS3_.exit, label %9

9:                                                ; preds = %2
  %10 = tail call noundef nonnull align 8 dereferenceable(16) ptr @_ZN4llvm15SmallVectorImplIPNS_6RecordEEaSEOS3_(ptr noundef nonnull align 8 dereferenceable(64) %5, ptr noundef nonnull align 8 dereferenceable(64) %6)
  br label %_ZN4llvm11SmallVectorIPNS_6RecordELj6EEC2EOS3_.exit

_ZN4llvm11SmallVectorIPNS_6RecordELj6EEC2EOS3_.exit: ; preds = %2, %9
  %11 = getelementptr inbounds nuw i8, ptr %0, i64 136
  %12 = getelementptr inbounds nuw i8, ptr %1, i64 136
  %13 = getelementptr inbounds nuw i8, ptr %0, i64 152
  tail call void @_ZN4llvm15SmallVectorBaseIjEC2EPvm(ptr noundef nonnull align 8 dereferenceable(64) %11, ptr noundef nonnull %13, i64 noundef 6) #20
  %14 = tail call noundef zeroext i1 @_ZNK4llvm15SmallVectorBaseIjE5emptyEv(ptr noundef nonnull align 8 dereferenceable(64) %12) #20
  br i1 %14, label %_ZN4llvm11SmallVectorIPNS_6RecordELj6EEC2EOS3_.exit11, label %15

15:                                               ; preds = %_ZN4llvm11SmallVectorIPNS_6RecordELj6EEC2EOS3_.exit
  %16 = tail call noundef nonnull align 8 dereferenceable(16) ptr @_ZN4llvm15SmallVectorImplIPNS_6RecordEEaSEOS3_(ptr noundef nonnull align 8 dereferenceable(64) %11, ptr noundef nonnull align 8 dereferenceable(64) %12)
  br label %_ZN4llvm11SmallVectorIPNS_6RecordELj6EEC2EOS3_.exit11

_ZN4llvm11SmallVectorIPNS_6RecordELj6EEC2EOS3_.exit11: ; preds = %_ZN4llvm11SmallVectorIPNS_6RecordELj6EEC2EOS3_.exit, %15
  %17 = getelementptr inbounds nuw i8, ptr %0, i64 200
  %18 = getelementptr inbounds nuw i8, ptr %1, i64 200
  %19 = getelementptr inbounds nuw i8, ptr %0, i64 216
  tail call void @_ZN4llvm15SmallVectorBaseIjEC2EPvm(ptr noundef nonnull align 8 dereferenceable(64) %17, ptr noundef nonnull %19, i64 noundef 6) #20
  %20 = tail call noundef zeroext i1 @_ZNK4llvm15SmallVectorBaseIjE5emptyEv(ptr noundef nonnull align 8 dereferenceable(64) %18) #20
  br i1 %20, label %_ZN4llvm11SmallVectorIPNS_6RecordELj6EEC2EOS3_.exit12, label %21

21:                                               ; preds = %_ZN4llvm11SmallVectorIPNS_6RecordELj6EEC2EOS3_.exit11
  %22 = tail call noundef nonnull align 8 dereferenceable(16) ptr @_ZN4llvm15SmallVectorImplIPNS_6RecordEEaSEOS3_(ptr noundef nonnull align 8 dereferenceable(64) %17, ptr noundef nonnull align 8 dereferenceable(64) %18)
  br label %_ZN4llvm11SmallVectorIPNS_6RecordELj6EEC2EOS3_.exit12

_ZN4llvm11SmallVectorIPNS_6RecordELj6EEC2EOS3_.exit12: ; preds = %_ZN4llvm11SmallVectorIPNS_6RecordELj6EEC2EOS3_.exit11, %21
  %23 = getelementptr inbounds nuw i8, ptr %0, i64 264
  %24 = getelementptr inbounds nuw i8, ptr %1, i64 264
  %25 = getelementptr inbounds nuw i8, ptr %0, i64 280
  tail call void @_ZN4llvm15SmallVectorBaseIjEC2EPvm(ptr noundef nonnull align 8 dereferenceable(64) %23, ptr noundef nonnull %25, i64 noundef 6) #20
  %26 = tail call noundef zeroext i1 @_ZNK4llvm15SmallVectorBaseIjE5emptyEv(ptr noundef nonnull align 8 dereferenceable(64) %24) #20
  br i1 %26, label %_ZN4llvm11SmallVectorIPNS_6RecordELj6EEC2EOS3_.exit13, label %27

27:                                               ; preds = %_ZN4llvm11SmallVectorIPNS_6RecordELj6EEC2EOS3_.exit12
  %28 = tail call noundef nonnull align 8 dereferenceable(16) ptr @_ZN4llvm15SmallVectorImplIPNS_6RecordEEaSEOS3_(ptr noundef nonnull align 8 dereferenceable(64) %23, ptr noundef nonnull align 8 dereferenceable(64) %24)
  br label %_ZN4llvm11SmallVectorIPNS_6RecordELj6EEC2EOS3_.exit13

_ZN4llvm11SmallVectorIPNS_6RecordELj6EEC2EOS3_.exit13: ; preds = %_ZN4llvm11SmallVectorIPNS_6RecordELj6EEC2EOS3_.exit12, %27
  %29 = getelementptr inbounds nuw i8, ptr %0, i64 328
  %30 = getelementptr inbounds nuw i8, ptr %1, i64 328
  tail call void @llvm.memcpy.p0.p0.i64(ptr noundef nonnull align 8 dereferenceable(16) %29, ptr noundef nonnull align 8 dereferenceable(16) %30, i64 16, i1 false)
  %31 = getelementptr inbounds nuw i8, ptr %0, i64 344
  %32 = getelementptr inbounds nuw i8, ptr %1, i64 344
  %33 = getelementptr inbounds nuw i8, ptr %0, i64 360
  tail call void @_ZN4llvm15SmallVectorBaseIjEC2EPvm(ptr noundef nonnull align 8 dereferenceable(80) %31, ptr noundef nonnull %33, i64 noundef 4) #20
  %34 = tail call noundef zeroext i1 @_ZNK4llvm15SmallVectorBaseIjE5emptyEv(ptr noundef nonnull align 8 dereferenceable(80) %32) #20
  br i1 %34, label %_ZN4llvm11SmallVectorINS_9StringRefELj4EEC2EOS2_.exit, label %35

35:                                               ; preds = %_ZN4llvm11SmallVectorIPNS_6RecordELj6EEC2EOS3_.exit13
  %36 = tail call noundef nonnull align 8 dereferenceable(16) ptr @_ZN4llvm15SmallVectorImplINS_9StringRefEEaSEOS2_(ptr noundef nonnull align 8 dereferenceable(80) %31, ptr noundef nonnull align 8 dereferenceable(80) %32)
  br label %_ZN4llvm11SmallVectorINS_9StringRefELj4EEC2EOS2_.exit

_ZN4llvm11SmallVectorINS_9StringRefELj4EEC2EOS2_.exit: ; preds = %_ZN4llvm11SmallVectorIPNS_6RecordELj6EEC2EOS3_.exit13, %35
  %37 = getelementptr inbounds nuw i8, ptr %0, i64 424
  %38 = getelementptr inbounds nuw i8, ptr %1, i64 424
  %39 = load i32, ptr %38, align 8
  store i32 %39, ptr %37, align 8
  %40 = getelementptr inbounds nuw i8, ptr %0, i64 432
  %41 = getelementptr inbounds nuw i8, ptr %1, i64 432
  %42 = getelementptr inbounds nuw i8, ptr %0, i64 448
  tail call void @_ZN4llvm15SmallVectorBaseIjEC2EPvm(ptr noundef nonnull align 8 dereferenceable(80) %40, ptr noundef nonnull %42, i64 noundef 4) #20
  %43 = tail call noundef zeroext i1 @_ZNK4llvm15SmallVectorBaseIjE5emptyEv(ptr noundef nonnull align 8 dereferenceable(80) %41) #20
  br i1 %43, label %_ZN4llvm11SmallVectorINS_9StringRefELj4EEC2EOS2_.exit14, label %44

44:                                               ; preds = %_ZN4llvm11SmallVectorINS_9StringRefELj4EEC2EOS2_.exit
  %45 = tail call noundef nonnull align 8 dereferenceable(16) ptr @_ZN4llvm15SmallVectorImplINS_9StringRefEEaSEOS2_(ptr noundef nonnull align 8 dereferenceable(80) %40, ptr noundef nonnull align 8 dereferenceable(80) %41)
  br label %_ZN4llvm11SmallVectorINS_9StringRefELj4EEC2EOS2_.exit14

_ZN4llvm11SmallVectorINS_9StringRefELj4EEC2EOS2_.exit14: ; preds = %_ZN4llvm11SmallVectorINS_9StringRefELj4EEC2EOS2_.exit, %44
  ret void
}